target datalayout = "e-m:e-p270:32:32-p271:32:32-p272:64:64-i64:64-i128:128-f80:128-n8:16:32:64-S128"
target triple = "x86_64-pc-linux-gnu"

%"class.CORE::ExprRep" = type { ptr, i32, ptr, %"class.CORE::filteredFp" }
%"class.CORE::filteredFp" = type <{ double, double, i32, [4 x i8] }>
%"class.CORE::RCImpl.21" = type { ptr }

; Function Attrs: mustprogress nounwind uwtable
define linkonce_odr dso_local void @_ZN4CORE7ExprRep6incRefEv(ptr noundef nonnull align 8 dereferenceable(48) %0) #1 comdat align 2 {
  %2 = alloca ptr, align 8
  store ptr %0, ptr %2, align 8, !tbaa !55
  %3 = load ptr, ptr %2, align 8
  %4 = getelementptr inbounds nuw %"class.CORE::ExprRep", ptr %3, i32 0, i32 1
  %5 = load i32, ptr %4, align 8, !tbaa !657
  %6 = add nsw i32 %5, 1
  store i32 %6, ptr %4, align 8, !tbaa !657
  ret void
}

; Function Attrs: mustprogress nounwind uwtable
define linkonce_odr dso_local void @_ZN4CORE7ExprRep6decRefEv(ptr noundef nonnull align 8 dereferenceable(48) %0) #1 comdat align 2 {
  %2 = alloca ptr, align 8
  store ptr %0, ptr %2, align 8, !tbaa !55
  %3 = load ptr, ptr %2, align 8
  %4 = getelementptr inbounds nuw %"class.CORE::ExprRep", ptr %3, i32 0, i32 1
  %5 = load i32, ptr %4, align 8, !tbaa !657
  %6 = add nsw i32 %5, -1
  store i32 %6, ptr %4, align 8, !tbaa !657
  %7 = icmp eq i32 %6, 0
  br i1 %7, label %8, label %15

8:                                                ; preds = %1
  %9 = icmp eq ptr %3, null
  br i1 %9, label %14, label %10

10:                                               ; preds = %8
  %11 = load ptr, ptr %3, align 8, !tbaa !53
  %12 = getelementptr inbounds ptr, ptr %11, i64 1
  %13 = load ptr, ptr %12, align 8
  call void %13(ptr noundef nonnull align 8 dereferenceable(48) %3) #21
  br label %14

14:                                               ; preds = %10, %8
  br label %15

15:                                               ; preds = %14, %1
  ret void
}

; Function Attrs: mustprogress uwtable
define linkonce_odr dso_local noundef nonnull align 8 dereferenceable(8) ptr @_ZN4CORE4ExpraSERKS0_(ptr noundef nonnull align 8 dereferenceable(8) %0, ptr noundef nonnull align 8 dereferenceable(8) %1) #3 comdat align 2 {
  %3 = alloca ptr, align 8
  %4 = alloca ptr, align 8
  store ptr %0, ptr %3, align 8, !tbaa !99
  store ptr %1, ptr %4, align 8, !tbaa !99
  %5 = load ptr, ptr %3, align 8
  %6 = load ptr, ptr %4, align 8, !tbaa !99
  %7 = icmp ne ptr %5, %6
  br i1 %7, label %8, label %17

8:                                                ; preds = %2
  %9 = getelementptr inbounds nuw %"class.CORE::RCImpl.21", ptr %5, i32 0, i32 0
  %10 = load ptr, ptr %9, align 8, !tbaa !101
  call void @_ZN4CORE7ExprRep6decRefEv(ptr noundef nonnull align 8 dereferenceable(48) %10)
  %11 = load ptr, ptr %4, align 8, !tbaa !99
  %12 = getelementptr inbounds nuw %"class.CORE::RCImpl.21", ptr %11, i32 0, i32 0
  %13 = load ptr, ptr %12, align 8, !tbaa !101
  %14 = getelementptr inbounds nuw %"class.CORE::RCImpl.21", ptr %5, i32 0, i32 0
  store ptr %13, ptr %14, align 8, !tbaa !101
  %15 = getelementptr inbounds nuw %"class.CORE::RCImpl.21", ptr %5, i32 0, i32 0
  %16 = load ptr, ptr %15, align 8, !tbaa !101
  call void @_ZN4CORE7ExprRep6incRefEv(ptr noundef nonnull align 8 dereferenceable(48) %16)
  br label %17

17:                                               ; preds = %8, %2
  ret ptr %5
}

; Function Attrs: mustprogress uwtable
define dso_local void @_ZN3igl8copyleft4cgal13assign_scalarERKN4CORE4ExprERS3_(ptr noundef nonnull align 8 dereferenceable(8) %0, ptr noundef nonnull align 8 dereferenceable(8) %1) #3 {
  %3 = alloca ptr, align 8
  %4 = alloca ptr, align 8
  store ptr %0, ptr %3, align 8, !tbaa !99
  store ptr %1, ptr %4, align 8, !tbaa !99
  %5 = load ptr, ptr %3, align 8, !tbaa !99
  %6 = load ptr, ptr %4, align 8, !tbaa !99
  %7 = call noundef nonnull align 8 dereferenceable(8) ptr @_ZN4CORE4ExpraSERKS0_(ptr noundef nonnull align 8 dereferenceable(8) %6, ptr noundef nonnull align 8 dereferenceable(8) %5)
  ret void
}