; Function Attrs: mustprogress uwtable
define dso_local void @_ZN3igl8copyleft4cgal13assign_scalarERKN4CORE4ExprERS3_(ptr noundef nonnull readonly align 8 captures(address) dereferenceable(8) %0, ptr noundef nonnull align 8 captures(address) dereferenceable(8) %1) local_unnamed_addr #7 {
  %.not.i = icmp eq ptr %1, %0
  br i1 %.not.i, label %_ZN4CORE4ExpraSERKS0_.exit, label %3

3:                                                ; preds = %2
  %4 = load ptr, ptr %1, align 8, !tbaa !139
  %5 = getelementptr inbounds nuw i8, ptr %4, i64 8
  %6 = load i32, ptr %5, align 8, !tbaa !141
  %7 = add nsw i32 %6, -1
  store i32 %7, ptr %5, align 8, !tbaa !141
  %.not.i.i = icmp eq i32 %7, 0
  br i1 %.not.i.i, label %8, label %_ZN4CORE7ExprRep6decRefEv.exit.i

8:                                                ; preds = %3
  %9 = load ptr, ptr %4, align 8, !tbaa !20
  %10 = getelementptr inbounds nuw i8, ptr %9, i64 8
  %11 = load ptr, ptr %10, align 8
  tail call void %11(ptr noundef nonnull align 8 dereferenceable(48) %4) #25
  br label %_ZN4CORE7ExprRep6decRefEv.exit.i

_ZN4CORE7ExprRep6decRefEv.exit.i:                 ; preds = %8, %3
  %12 = load ptr, ptr %0, align 8, !tbaa !139
  store ptr %12, ptr %1, align 8, !tbaa !139
  %13 = getelementptr inbounds nuw i8, ptr %12, i64 8
  %14 = load i32, ptr %13, align 8, !tbaa !141
  %15 = add nsw i32 %14, 1
  store i32 %15, ptr %13, align 8, !tbaa !141
  br label %_ZN4CORE4ExpraSERKS0_.exit

_ZN4CORE4ExpraSERKS0_.exit:                       ; preds = %2, %_ZN4CORE7ExprRep6decRefEv.exit.i
  ret void
}